; ModuleID = '64/345.c'
source_filename = "64/345.c"
target datalayout = "e-m:e-p270:32:32-p271:32:32-p272:64:64-i64:64-f80:128-n8:16:32:64-S128"
target triple = "x86_64-pc-linux-gnu"

%struct.anon = type { float, i32, i32 }

@.str = private unnamed_addr constant [3 x i8] c"%d\00", align 1
@.str.1 = private unnamed_addr constant [7 x i8] c"%d%d%d\00", align 1
@s = common dso_local global [50 x %struct.anon] zeroinitializer, align 16
@temp = common dso_local global %struct.anon zeroinitializer, align 4
@.str.2 = private unnamed_addr constant [28 x i8] c"(%d,%d,%d)-(%d,%d,%d)=%.2f\0A\00", align 1

; Function Attrs: noinline nounwind uwtable
define dso_local void @main() #0 {
  %1 = alloca i32, align 4
  %2 = alloca i32, align 4
  %3 = alloca i32, align 4
  %4 = alloca [10 x i32], align 16
  %5 = alloca [10 x i32], align 16
  %6 = alloca [10 x i32], align 16
  %7 = alloca i32, align 4
  %8 = call i32 (i8*, ...) @__isoc99_scanf(i8* getelementptr inbounds ([3 x i8], [3 x i8]* @.str, i64 0, i64 0), i32* %1)
  store i32 0, i32* %2, align 4
  br label %9

9:                                                ; preds = %24, %0
  %10 = load i32, i32* %2, align 4
  %11 = load i32, i32* %1, align 4
  %12 = icmp slt i32 %10, %11
  br i1 %12, label %13, label %27

13:                                               ; preds = %9
  %14 = load i32, i32* %2, align 4
  %15 = sext i32 %14 to i64
  %16 = getelementptr inbounds [10 x i32], [10 x i32]* %4, i64 0, i64 %15
  %17 = load i32, i32* %2, align 4
  %18 = sext i32 %17 to i64
  %19 = getelementptr inbounds [10 x i32], [10 x i32]* %5, i64 0, i64 %18
  %20 = load i32, i32* %2, align 4
  %21 = sext i32 %20 to i64
  %22 = getelementptr inbounds [10 x i32], [10 x i32]* %6, i64 0, i64 %21
  %23 = call i32 (i8*, ...) @__isoc99_scanf(i8* getelementptr inbounds ([7 x i8], [7 x i8]* @.str.1, i64 0, i64 0), i32* %16, i32* %19, i32* %22)
  br label %24

24:                                               ; preds = %13
  %25 = load i32, i32* %2, align 4
  %26 = add nsw i32 %25, 1
  store i32 %26, i32* %2, align 4
  br label %9

27:                                               ; preds = %9
  store i32 0, i32* %7, align 4
  store i32 0, i32* %2, align 4
  br label %28

28:                                               ; preds = %123, %27
  %29 = load i32, i32* %2, align 4
  %30 = load i32, i32* %1, align 4
  %31 = sub nsw i32 %30, 1
  %32 = icmp slt i32 %29, %31
  br i1 %32, label %33, label %126

33:                                               ; preds = %28
  %34 = load i32, i32* %2, align 4
  %35 = add nsw i32 %34, 1
  store i32 %35, i32* %3, align 4
  br label %36

36:                                               ; preds = %119, %33
  %37 = load i32, i32* %3, align 4
  %38 = load i32, i32* %1, align 4
  %39 = icmp slt i32 %37, %38
  br i1 %39, label %40, label %122

40:                                               ; preds = %36
  %41 = load i32, i32* %2, align 4
  %42 = sext i32 %41 to i64
  %43 = getelementptr inbounds [10 x i32], [10 x i32]* %4, i64 0, i64 %42
  %44 = load i32, i32* %43, align 4
  %45 = load i32, i32* %3, align 4
  %46 = sext i32 %45 to i64
  %47 = getelementptr inbounds [10 x i32], [10 x i32]* %4, i64 0, i64 %46
  %48 = load i32, i32* %47, align 4
  %49 = sub nsw i32 %44, %48
  %50 = load i32, i32* %2, align 4
  %51 = sext i32 %50 to i64
  %52 = getelementptr inbounds [10 x i32], [10 x i32]* %4, i64 0, i64 %51
  %53 = load i32, i32* %52, align 4
  %54 = load i32, i32* %3, align 4
  %55 = sext i32 %54 to i64
  %56 = getelementptr inbounds [10 x i32], [10 x i32]* %4, i64 0, i64 %55
  %57 = load i32, i32* %56, align 4
  %58 = sub nsw i32 %53, %57
  %59 = mul nsw i32 %49, %58
  %60 = load i32, i32* %2, align 4
  %61 = sext i32 %60 to i64
  %62 = getelementptr inbounds [10 x i32], [10 x i32]* %5, i64 0, i64 %61
  %63 = load i32, i32* %62, align 4
  %64 = load i32, i32* %3, align 4
  %65 = sext i32 %64 to i64
  %66 = getelementptr inbounds [10 x i32], [10 x i32]* %5, i64 0, i64 %65
  %67 = load i32, i32* %66, align 4
  %68 = sub nsw i32 %63, %67
  %69 = load i32, i32* %2, align 4
  %70 = sext i32 %69 to i64
  %71 = getelementptr inbounds [10 x i32], [10 x i32]* %5, i64 0, i64 %70
  %72 = load i32, i32* %71, align 4
  %73 = load i32, i32* %3, align 4
  %74 = sext i32 %73 to i64
  %75 = getelementptr inbounds [10 x i32], [10 x i32]* %5, i64 0, i64 %74
  %76 = load i32, i32* %75, align 4
  %77 = sub nsw i32 %72, %76
  %78 = mul nsw i32 %68, %77
  %79 = add nsw i32 %59, %78
  %80 = load i32, i32* %2, align 4
  %81 = sext i32 %80 to i64
  %82 = getelementptr inbounds [10 x i32], [10 x i32]* %6, i64 0, i64 %81
  %83 = load i32, i32* %82, align 4
  %84 = load i32, i32* %3, align 4
  %85 = sext i32 %84 to i64
  %86 = getelementptr inbounds [10 x i32], [10 x i32]* %6, i64 0, i64 %85
  %87 = load i32, i32* %86, align 4
  %88 = sub nsw i32 %83, %87
  %89 = load i32, i32* %2, align 4
  %90 = sext i32 %89 to i64
  %91 = getelementptr inbounds [10 x i32], [10 x i32]* %6, i64 0, i64 %90
  %92 = load i32, i32* %91, align 4
  %93 = load i32, i32* %3, align 4
  %94 = sext i32 %93 to i64
  %95 = getelementptr inbounds [10 x i32], [10 x i32]* %6, i64 0, i64 %94
  %96 = load i32, i32* %95, align 4
  %97 = sub nsw i32 %92, %96
  %98 = mul nsw i32 %88, %97
  %99 = add nsw i32 %79, %98
  %100 = sitofp i32 %99 to double
  %101 = call double @sqrt(double %100) #4
  %102 = fptrunc double %101 to float
  %103 = load i32, i32* %7, align 4
  %104 = sext i32 %103 to i64
  %105 = getelementptr inbounds [50 x %struct.anon], [50 x %struct.anon]* @s, i64 0, i64 %104
  %106 = getelementptr inbounds %struct.anon, %struct.anon* %105, i32 0, i32 0
  store float %102, float* %106, align 4
  %107 = load i32, i32* %2, align 4
  %108 = load i32, i32* %7, align 4
  %109 = sext i32 %108 to i64
  %110 = getelementptr inbounds [50 x %struct.anon], [50 x %struct.anon]* @s, i64 0, i64 %109
  %111 = getelementptr inbounds %struct.anon, %struct.anon* %110, i32 0, i32 1
  store i32 %107, i32* %111, align 4
  %112 = load i32, i32* %3, align 4
  %113 = load i32, i32* %7, align 4
  %114 = sext i32 %113 to i64
  %115 = getelementptr inbounds [50 x %struct.anon], [50 x %struct.anon]* @s, i64 0, i64 %114
  %116 = getelementptr inbounds %struct.anon, %struct.anon* %115, i32 0, i32 2
  store i32 %112, i32* %116, align 4
  %117 = load i32, i32* %7, align 4
  %118 = add nsw i32 %117, 1
  store i32 %118, i32* %7, align 4
  br label %119

119:                                              ; preds = %40
  %120 = load i32, i32* %3, align 4
  %121 = add nsw i32 %120, 1
  store i32 %121, i32* %3, align 4
  br label %36

122:                                              ; preds = %36
  br label %123

123:                                              ; preds = %122
  %124 = load i32, i32* %2, align 4
  %125 = add nsw i32 %124, 1
  store i32 %125, i32* %2, align 4
  br label %28

126:                                              ; preds = %28
  store i32 0, i32* %2, align 4
  br label %127

127:                                              ; preds = %177, %126
  %128 = load i32, i32* %2, align 4
  %129 = load i32, i32* %7, align 4
  %130 = sub nsw i32 %129, 1
  %131 = icmp slt i32 %128, %130
  br i1 %131, label %132, label %180

132:                                              ; preds = %127
  store i32 0, i32* %3, align 4
  br label %133

133:                                              ; preds = %173, %132
  %134 = load i32, i32* %3, align 4
  %135 = load i32, i32* %7, align 4
  %136 = load i32, i32* %2, align 4
  %137 = sub nsw i32 %135, %136
  %138 = sub nsw i32 %137, 1
  %139 = icmp slt i32 %134, %138
  br i1 %139, label %140, label %176

140:                                              ; preds = %133
  %141 = load i32, i32* %3, align 4
  %142 = sext i32 %141 to i64
  %143 = getelementptr inbounds [50 x %struct.anon], [50 x %struct.anon]* @s, i64 0, i64 %142
  %144 = getelementptr inbounds %struct.anon, %struct.anon* %143, i32 0, i32 0
  %145 = load float, float* %144, align 4
  %146 = load i32, i32* %3, align 4
  %147 = add nsw i32 %146, 1
  %148 = sext i32 %147 to i64
  %149 = getelementptr inbounds [50 x %struct.anon], [50 x %struct.anon]* @s, i64 0, i64 %148
  %150 = getelementptr inbounds %struct.anon, %struct.anon* %149, i32 0, i32 0
  %151 = load float, float* %150, align 4
  %152 = fcmp olt float %145, %151
  br i1 %152, label %153, label %172

153:                                              ; preds = %140
  %154 = load i32, i32* %3, align 4
  %155 = sext i32 %154 to i64
  %156 = getelementptr inbounds [50 x %struct.anon], [50 x %struct.anon]* @s, i64 0, i64 %155
  %157 = bitcast %struct.anon* %156 to i8*
  call void @llvm.memcpy.p0i8.p0i8.i64(i8* align 4 bitcast (%struct.anon* @temp to i8*), i8* align 4 %157, i64 12, i1 false)
  %158 = load i32, i32* %3, align 4
  %159 = sext i32 %158 to i64
  %160 = getelementptr inbounds [50 x %struct.anon], [50 x %struct.anon]* @s, i64 0, i64 %159
  %161 = load i32, i32* %3, align 4
  %162 = add nsw i32 %161, 1
  %163 = sext i32 %162 to i64
  %164 = getelementptr inbounds [50 x %struct.anon], [50 x %struct.anon]* @s, i64 0, i64 %163
  %165 = bitcast %struct.anon* %160 to i8*
  %166 = bitcast %struct.anon* %164 to i8*
  call void @llvm.memcpy.p0i8.p0i8.i64(i8* align 4 %165, i8* align 4 %166, i64 12, i1 false)
  %167 = load i32, i32* %3, align 4
  %168 = add nsw i32 %167, 1
  %169 = sext i32 %168 to i64
  %170 = getelementptr inbounds [50 x %struct.anon], [50 x %struct.anon]* @s, i64 0, i64 %169
  %171 = bitcast %struct.anon* %170 to i8*
  call void @llvm.memcpy.p0i8.p0i8.i64(i8* align 4 %171, i8* align 4 bitcast (%struct.anon* @temp to i8*), i64 12, i1 false)
  br label %172

172:                                              ; preds = %153, %140
  br label %173

173:                                              ; preds = %172
  %174 = load i32, i32* %3, align 4
  %175 = add nsw i32 %174, 1
  store i32 %175, i32* %3, align 4
  br label %133

176:                                              ; preds = %133
  br label %177

177:                                              ; preds = %176
  %178 = load i32, i32* %2, align 4
  %179 = add nsw i32 %178, 1
  store i32 %179, i32* %2, align 4
  br label %127

180:                                              ; preds = %127
  store i32 0, i32* %2, align 4
  br label %181

181:                                              ; preds = %241, %180
  %182 = load i32, i32* %2, align 4
  %183 = load i32, i32* %7, align 4
  %184 = icmp slt i32 %182, %183
  br i1 %184, label %185, label %244

185:                                              ; preds = %181
  %186 = load i32, i32* %2, align 4
  %187 = sext i32 %186 to i64
  %188 = getelementptr inbounds [50 x %struct.anon], [50 x %struct.anon]* @s, i64 0, i64 %187
  %189 = getelementptr inbounds %struct.anon, %struct.anon* %188, i32 0, i32 1
  %190 = load i32, i32* %189, align 4
  %191 = sext i32 %190 to i64
  %192 = getelementptr inbounds [10 x i32], [10 x i32]* %4, i64 0, i64 %191
  %193 = load i32, i32* %192, align 4
  %194 = load i32, i32* %2, align 4
  %195 = sext i32 %194 to i64
  %196 = getelementptr inbounds [50 x %struct.anon], [50 x %struct.anon]* @s, i64 0, i64 %195
  %197 = getelementptr inbounds %struct.anon, %struct.anon* %196, i32 0, i32 1
  %198 = load i32, i32* %197, align 4
  %199 = sext i32 %198 to i64
  %200 = getelementptr inbounds [10 x i32], [10 x i32]* %5, i64 0, i64 %199
  %201 = load i32, i32* %200, align 4
  %202 = load i32, i32* %2, align 4
  %203 = sext i32 %202 to i64
  %204 = getelementptr inbounds [50 x %struct.anon], [50 x %struct.anon]* @s, i64 0, i64 %203
  %205 = getelementptr inbounds %struct.anon, %struct.anon* %204, i32 0, i32 1
  %206 = load i32, i32* %205, align 4
  %207 = sext i32 %206 to i64
  %208 = getelementptr inbounds [10 x i32], [10 x i32]* %6, i64 0, i64 %207
  %209 = load i32, i32* %208, align 4
  %210 = load i32, i32* %2, align 4
  %211 = sext i32 %210 to i64
  %212 = getelementptr inbounds [50 x %struct.anon], [50 x %struct.anon]* @s, i64 0, i64 %211
  %213 = getelementptr inbounds %struct.anon, %struct.anon* %212, i32 0, i32 2
  %214 = load i32, i32* %213, align 4
  %215 = sext i32 %214 to i64
  %216 = getelementptr inbounds [10 x i32], [10 x i32]* %4, i64 0, i64 %215
  %217 = load i32, i32* %216, align 4
  %218 = load i32, i32* %2, align 4
  %219 = sext i32 %218 to i64
  %220 = getelementptr inbounds [50 x %struct.anon], [50 x %struct.anon]* @s, i64 0, i64 %219
  %221 = getelementptr inbounds %struct.anon, %struct.anon* %220, i32 0, i32 2
  %222 = load i32, i32* %221, align 4
  %223 = sext i32 %222 to i64
  %224 = getelementptr inbounds [10 x i32], [10 x i32]* %5, i64 0, i64 %223
  %225 = load i32, i32* %224, align 4
  %226 = load i32, i32* %2, align 4
  %227 = sext i32 %226 to i64
  %228 = getelementptr inbounds [50 x %struct.anon], [50 x %struct.anon]* @s, i64 0, i64 %227
  %229 = getelementptr inbounds %struct.anon, %struct.anon* %228, i32 0, i32 2
  %230 = load i32, i32* %229, align 4
  %231 = sext i32 %230 to i64
  %232 = getelementptr inbounds [10 x i32], [10 x i32]* %6, i64 0, i64 %231
  %233 = load i32, i32* %232, align 4
  %234 = load i32, i32* %2, align 4
  %235 = sext i32 %234 to i64
  %236 = getelementptr inbounds [50 x %struct.anon], [50 x %struct.anon]* @s, i64 0, i64 %235
  %237 = getelementptr inbounds %struct.anon, %struct.anon* %236, i32 0, i32 0
  %238 = load float, float* %237, align 4
  %239 = fpext float %238 to double
  %240 = call i32 (i8*, ...) @printf(i8* getelementptr inbounds ([28 x i8], [28 x i8]* @.str.2, i64 0, i64 0), i32 %193, i32 %201, i32 %209, i32 %217, i32 %225, i32 %233, double %239)
  br label %241

241:                                              ; preds = %185
  %242 = load i32, i32* %2, align 4
  %243 = add nsw i32 %242, 1
  store i32 %243, i32* %2, align 4
  br label %181

244:                                              ; preds = %181
  ret void
}

declare dso_local i32 @__isoc99_scanf(i8*, ...) #1

; Function Attrs: nounwind
declare dso_local double @sqrt(double) #2

; Function Attrs: argmemonly nounwind willreturn
declare void @llvm.memcpy.p0i8.p0i8.i64(i8* noalias nocapture writeonly, i8* noalias nocapture readonly, i64, i1 immarg) #3

declare dso_local i32 @printf(i8*, ...) #1


!llvm.module.flags = !{!0}
!llvm.ident = !{!1}

!0 = !{i32 1, !"wchar_size", i32 4}
!1 = !{!"clang version 10.0.0-4ubuntu1 "}
